; Function Attrs: nounwind uwtable
define internal noundef ptr @readline_set_history_length(ptr readnone captures(none) %0, ptr noundef %1) #0 {
  %3 = tail call i32 @PyLong_AsInt(ptr noundef %1) #14
  %4 = icmp eq i32 %3, -1
  br i1 %4, label %5, label %.sink.split

5:                                                ; preds = %2
  %6 = tail call ptr @PyErr_Occurred() #14
  %.not = icmp eq ptr %6, null
  br i1 %.not, label %.sink.split, label %7

.sink.split:                                      ; preds = %5, %2
  %.sink = phi i32 [ %3, %2 ], [ -1, %5 ]
  store i32 %.sink, ptr @_history_length, align 4, !tbaa !17
  br label %7

7:                                                ; preds = %.sink.split, %5
  %.0 = phi ptr [ null, %5 ], [ @_Py_NoneStruct, %.sink.split ]
  ret ptr %.0
}